target datalayout = "e-m:e-p270:32:32-p271:32:32-p272:64:64-i64:64-i128:128-f80:128-n8:16:32:64-S128"
target triple = "x86_64-pc-linux-gnu"

%class.cmScriptGenerator = type <{ ptr, %"class.std::__cxx11::basic_string", %"class.std::vector", %"class.std::__cxx11::basic_string", ptr, i8, [7 x i8] }>
%"class.std::vector" = type { %"struct.std::_Vector_base" }
%"struct.std::_Vector_base" = type { %"struct.std::_Vector_base<std::__cxx11::basic_string<char>, std::allocator<std::__cxx11::basic_string<char>>>::_Vector_impl" }
%"struct.std::_Vector_base<std::__cxx11::basic_string<char>, std::allocator<std::__cxx11::basic_string<char>>>::_Vector_impl" = type { %"struct.std::_Vector_base<std::__cxx11::basic_string<char>, std::allocator<std::__cxx11::basic_string<char>>>::_Vector_impl_data" }
%"struct.std::_Vector_base<std::__cxx11::basic_string<char>, std::allocator<std::__cxx11::basic_string<char>>>::_Vector_impl_data" = type { ptr, ptr, ptr }
%"class.std::__cxx11::basic_string" = type { %"struct.std::__cxx11::basic_string<char>::_Alloc_hider", i64, %union.anon }
%"struct.std::__cxx11::basic_string<char>::_Alloc_hider" = type { ptr }
%union.anon = type { i64, [8 x i8] }
%class.cmScriptGeneratorIndent = type { i32 }

; Function Attrs: mustprogress uwtable
define dso_local void @_ZN17cmScriptGenerator21GenerateScriptActionsERSo23cmScriptGeneratorIndent(ptr noundef nonnull align 8 dereferenceable(105) %0, ptr noundef nonnull align 8 dereferenceable(8) %1, i32 %2) unnamed_addr #6 align 2 {
  %4 = alloca %class.cmScriptGeneratorIndent, align 4
  %5 = alloca ptr, align 8
  %6 = alloca ptr, align 8
  %7 = alloca %class.cmScriptGeneratorIndent, align 4
  %8 = getelementptr inbounds %class.cmScriptGeneratorIndent, ptr %4, i32 0, i32 0
  store i32 %2, ptr %8, align 4
  store ptr %0, ptr %5, align 8
  store ptr %1, ptr %6, align 8
  %9 = load ptr, ptr %5, align 8
  %10 = getelementptr inbounds %class.cmScriptGenerator, ptr %9, i32 0, i32 5
  %11 = load i8, ptr %10, align 8
  %12 = trunc i8 %11 to i1
  br i1 %12, label %13, label %21

13:                                               ; preds = %3
  %14 = load ptr, ptr %6, align 8
  %15 = getelementptr inbounds %class.cmScriptGenerator, ptr %9, i32 0, i32 3
  call void @llvm.memcpy.p0.p0.i64(ptr align 4 %7, ptr align 4 %4, i64 4, i1 false)
  %16 = getelementptr inbounds %class.cmScriptGeneratorIndent, ptr %7, i32 0, i32 0
  %17 = load i32, ptr %16, align 4
  %18 = load ptr, ptr %9, align 8
  %19 = getelementptr inbounds ptr, ptr %18, i64 5
  %20 = load ptr, ptr %19, align 8
  call void %20(ptr noundef nonnull align 8 dereferenceable(105) %9, ptr noundef nonnull align 8 dereferenceable(8) %14, ptr noundef nonnull align 8 dereferenceable(32) %15, i32 %17)
  br label %21

21:                                               ; preds = %13, %3
  ret void
}