; Function Attrs: mustprogress uwtable
define dso_local void @_ZN17cmScriptGenerator21GenerateScriptActionsERSo23cmScriptGeneratorIndent(ptr noundef nonnull align 8 dereferenceable(105) %0, ptr noundef nonnull align 8 dereferenceable(8) %1, i32 %2) unnamed_addr #5 align 2 {
  %4 = getelementptr inbounds i8, ptr %0, i64 104
  %5 = load i8, ptr %4, align 8
  %6 = and i8 %5, 1
  %.not = icmp eq i8 %6, 0
  br i1 %.not, label %12, label %7

7:                                                ; preds = %3
  %8 = getelementptr inbounds i8, ptr %0, i64 64
  %9 = load ptr, ptr %0, align 8
  %10 = getelementptr inbounds i8, ptr %9, i64 40
  %11 = load ptr, ptr %10, align 8
  tail call void %11(ptr noundef nonnull align 8 dereferenceable(105) %0, ptr noundef nonnull align 8 dereferenceable(8) %1, ptr noundef nonnull align 8 dereferenceable(32) %8, i32 %2)
  br label %12

12:                                               ; preds = %7, %3
  ret void
}